(lp0
S'8484326992012855941975710715210910343455282'
p1
aS'19977581106168626967708202036793201098049136021288037'
p2
aS'1206094272246345644670552585245008439051284798611199898168'
p3
aS'2505762431679310743584126075901430466593748274844576015205'
p4
aS'5709236152845699045457927279902284897121162867705277164218768175926'
p5
aS'10783976757370602776217032805916890001105421477640332524398472290867'
p6
aS'297987367647662748967172160185370198881131979313'
p7
aS'299146483445387415446745778078472854094436460080'
p8
aS'6025923485592789224753153699702535725249871384905116081012373797221'
p9
a.