(lp0
S'129206194210743425233828645757921670704'
p1
aS'4984525518122802321661709347617707569603170'
p2
aS'19973174706282567523221289644780100471070907132175204'
p3
aS'583529852949629577314297034708946601267032568888'
p4
aS'129211386190680860805593537965800568885'
p5
a.